Certificate:
    Data:
        Version: 3 (0x2)
        Serial Number:
            4a:73:5f:0b:42:89:f8:8d:44:3d:b9:32:8c:33:61:26:ee:0b:a4:b9
        Signature Algorithm: sha256WithRSAEncryption
        Issuer: C=CA, ST=Nova Scotia, O=Bruce Rideout, OU=Development, CN=Bruce Rideout CA/emailAddress=bruce_rideout@yahoo.com
        Validity
            Not Before: Mar 14 09:30:42 2024 GMT
            Not After : Mar 14 09:30:42 2025 GMT
        Subject: C=CA, ST=Nova Scotia, L=Oxford, O=Bruce Rideout, OU=Development, CN=webmouse.local/emailAddress=bruce_rideout@yahoo.com
        Subject Public Key Info:
            Public Key Algorithm: rsaEncryption
                Public-Key: (2048 bit)
                Modulus:
                    00:9b:de:c5:32:e1:1e:4d:50:ad:d4:00:c3:fc:cf:
                    6e:86:96:86:15:ed:53:af:ba:ec:f6:8c:8c:a3:a1:
                    8d:0e:14:72:aa:d7:a2:53:4d:93:93:70:2f:b2:58:
                    60:87:ca:f5:31:7c:71:7b:c8:a7:05:f2:06:ff:c1:
                    55:d6:fa:76:d8:50:19:c2:98:1c:21:88:c5:4f:86:
                    08:c2:30:cb:a9:fa:45:3f:cd:95:d6:c8:07:b0:4f:
                    e4:b2:08:c9:84:bc:33:34:7b:f2:12:8b:0d:61:2b:
                    22:3b:59:f4:3e:5e:13:c9:ea:c7:f4:d3:77:ee:a2:
                    4f:2f:e3:f4:92:37:40:b5:61:1b:c1:2e:13:11:da:
                    93:07:5f:02:52:a7:3f:68:4f:32:b6:8d:0b:3b:08:
                    0a:95:34:6a:e7:68:78:56:3b:a8:c7:3d:d5:87:97:
                    0a:be:5b:d1:c3:81:47:e5:6e:42:11:7a:97:a2:ab:
                    ef:bc:9c:b4:e2:19:6b:07:fb:a7:fd:f7:81:c1:0a:
                    10:56:2d:f5:63:2a:3a:13:c6:16:0b:f6:9a:42:55:
                    fd:ad:3c:63:da:20:4e:7f:f3:9d:73:65:bd:1d:a8:
                    b4:ad:1b:fb:b8:50:df:af:d6:bc:c7:66:0c:0f:c1:
                    4e:f5:99:5d:33:5c:29:3e:24:6b:9d:1d:36:ae:f8:
                    57:91
                Exponent: 65537 (0x10001)
        X509v3 extensions:
            X509v3 Basic Constraints: 
                CA:FALSE
            X509v3 Subject Key Identifier: 
                C1:4D:22:88:38:93:E0:40:98:3F:11:22:C5:09:28:0F:6F:95:B5:54
            X509v3 Authority Key Identifier: 
                BE:D5:90:45:3B:FA:E0:5F:68:81:D0:35:02:6F:93:50:51:88:40:2E
    Signature Algorithm: sha256WithRSAEncryption
    Signature Value:
        6f:09:60:77:63:bd:1f:56:21:90:9d:10:f0:e2:ae:c7:5f:46:
        9b:0f:f0:ad:e4:ed:94:70:6f:87:39:b8:8f:f6:22:c3:45:18:
        a2:ab:9c:cd:fb:0e:cb:b6:d4:ef:f5:12:20:9a:0a:de:21:0b:
        e2:78:fb:8a:29:c9:64:2c:aa:a0:88:e7:5a:b3:1b:0e:a8:93:
        25:91:1d:eb:1e:c7:b0:dd:1f:35:7a:d6:c3:c7:63:36:6c:46:
        6f:26:c5:61:bc:94:95:d9:93:12:49:dd:40:be:51:e9:94:0a:
        4d:87:e4:04:ef:c4:0e:6d:fe:55:b4:7a:a0:65:b4:bd:76:5a:
        22:a9:c1:f1:50:a1:fe:6f:ba:ee:e5:44:5b:43:3d:e9:cd:ff:
        00:78:03:b9:c2:df:81:76:fe:eb:6e:f0:0f:8b:92:01:19:16:
        bb:c1:77:2c:a2:30:54:0b:a0:92:83:46:d8:fd:5b:e9:f4:09:
        69:ca:72:e1:6f:9c:85:15:66:3f:7d:9f:70:2b:1d:0b:2c:40:
        d1:44:ee:b1:11:7a:d7:5a:ee:bb:da:cb:6f:10:d7:a0:ec:ee:
        b0:b6:32:59:46:e3:af:16:4c:48:d9:6b:f2:c9:8f:e0:ab:81:
        05:28:c5:ad:92:6f:c0:e0:b9:c7:37:4b:f8:c3:e0:6d:6b:5c:
        8d:fb:ca:e2
-----BEGIN CERTIFICATE-----
MIIEFDCCAvygAwIBAgIUSnNfC0KJ+I1EPbkyjDNhJu4LpLkwDQYJKoZIhvcNAQEL
BQAwgZQxCzAJBgNVBAYTAkNBMRQwEgYDVQQIDAtOb3ZhIFNjb3RpYTEWMBQGA1UE
CgwNQnJ1Y2UgUmlkZW91dDEUMBIGA1UECwwLRGV2ZWxvcG1lbnQxGTAXBgNVBAMM
EEJydWNlIFJpZGVvdXQgQ0ExJjAkBgkqhkiG9w0BCQEWF2JydWNlX3JpZGVvdXRA
eWFob28uY29tMB4XDTI0MDMxNDA5MzA0MloXDTI1MDMxNDA5MzA0MlowgaMxCzAJ
BgNVBAYTAkNBMRQwEgYDVQQIDAtOb3ZhIFNjb3RpYTEPMA0GA1UEBwwGT3hmb3Jk
MRYwFAYDVQQKDA1CcnVjZSBSaWRlb3V0MRQwEgYDVQQLDAtEZXZlbG9wbWVudDEX
MBUGA1UEAwwOd2VibW91c2UubG9jYWwxJjAkBgkqhkiG9w0BCQEWF2JydWNlX3Jp
ZGVvdXRAeWFob28uY29tMIIBIjANBgkqhkiG9w0BAQEFAAOCAQ8AMIIBCgKCAQEA
m97FMuEeTVCt1ADD/M9uhpaGFe1Tr7rs9oyMo6GNDhRyqteiU02Tk3Avslhgh8r1
MXxxe8inBfIG/8FV1vp22FAZwpgcIYjFT4YIwjDLqfpFP82V1sgHsE/ksgjJhLwz
NHvyEosNYSsiO1n0Pl4TyerH9NN37qJPL+P0kjdAtWEbwS4TEdqTB18CUqc/aE8y
to0LOwgKlTRq52h4Vjuoxz3Vh5cKvlvRw4FH5W5CEXqXoqvvvJy04hlrB/un/feB
wQoQVi31Yyo6E8YWC/aaQlX9rTxj2iBOf/Odc2W9Hai0rRv7uFDfr9a8x2YMD8FO
9ZldM1wpPiRrnR02rvhXkQIDAQABo00wSzAJBgNVHRMEAjAAMB0GA1UdDgQWBBTB
TSKIOJPgQJg/ESLFCSgPb5W1VDAfBgNVHSMEGDAWgBS+1ZBFO/rgX2iB0DUCb5NQ
UYhALjANBgkqhkiG9w0BAQsFAAOCAQEAbwlgd2O9H1YhkJ0Q8OKux19Gmw/wreTt
lHBvhzm4j/Yiw0UYoquczfsOy7bU7/USIJoK3iEL4nj7iinJZCyqoIjnWrMbDqiT
JZEd6x7HsN0fNXrWw8djNmxGbybFYbyUldmTEkndQL5R6ZQKTYfkBO/EDm3+VbR6
oGW0vXZaIqnB8VCh/m+67uVEW0M96c3/AHgDucLfgXb+627wD4uSARkWu8F3LKIw
VAugkoNG2P1b6fQJacpy4W+chRVmP32fcCsdCyxA0UTusRF611ruu9rLbxDXoOzu
sLYyWUbjrxZMSNlr8smP4KuBBSjFrZJvwOC5xzdL+MPgbWtcjfvK4g==
-----END CERTIFICATE-----
