Certificate:
    Data:
        Version: 3 (0x2)
        Serial Number:
            4a:73:5f:0b:42:89:f8:8d:44:3d:b9:32:8c:33:61:26:ee:0b:a4:b8
        Signature Algorithm: sha256WithRSAEncryption
        Issuer: C=CA, ST=Nova Scotia, O=Bruce Rideout, OU=Development, CN=Bruce Rideout CA/emailAddress=bruce_rideout@yahoo.com
        Validity
            Not Before: Mar 14 09:28:59 2024 GMT
            Not After : Mar 14 09:28:59 2027 GMT
        Subject: C=CA, ST=Nova Scotia, O=Bruce Rideout, OU=Development, CN=Bruce Rideout CA/emailAddress=bruce_rideout@yahoo.com
        Subject Public Key Info:
            Public Key Algorithm: rsaEncryption
                Public-Key: (2048 bit)
                Modulus:
                    00:d6:3a:1a:8a:31:93:54:2b:30:5b:d6:aa:da:49:
                    70:d3:15:da:57:f7:76:e0:69:7c:ce:a9:b6:20:80:
                    ce:63:bc:46:4e:82:c9:5b:68:65:63:70:d1:c5:96:
                    3a:13:ce:6c:2a:00:c9:f1:b7:54:d9:5d:52:e8:bc:
                    b7:58:de:35:79:0a:8d:96:b7:fe:87:a7:99:20:5a:
                    0a:44:1c:e5:74:c9:78:79:d0:e9:49:50:53:ca:04:
                    c1:6e:06:1b:da:6c:54:fa:e7:59:6b:10:a4:ed:23:
                    21:c4:d2:7f:cf:af:98:4b:ac:20:00:64:14:c2:b2:
                    fb:1a:09:cd:6f:11:dd:8c:33:94:20:c7:fb:9a:8c:
                    fa:73:a6:79:07:41:0b:b1:8c:56:f3:7c:27:72:48:
                    b9:23:f4:63:a6:27:31:12:0f:5d:66:c8:1f:87:3b:
                    56:c0:8f:1c:ea:ff:f8:08:68:f6:25:71:bb:7c:86:
                    48:03:10:a6:ac:61:03:24:5b:62:32:08:78:e0:87:
                    e6:b5:c8:1c:21:c8:f3:fb:fd:8b:6d:4d:6a:c2:71:
                    3f:c0:33:40:1b:e5:66:57:93:26:51:d4:7d:a1:4e:
                    6d:91:c4:68:1e:2d:41:67:f5:c0:b0:7b:74:ad:da:
                    20:e3:fe:d5:40:fc:28:b5:06:af:d5:e9:73:42:42:
                    de:af
                Exponent: 65537 (0x10001)
        X509v3 extensions:
            X509v3 Subject Key Identifier: 
                BE:D5:90:45:3B:FA:E0:5F:68:81:D0:35:02:6F:93:50:51:88:40:2E
            X509v3 Authority Key Identifier: 
                BE:D5:90:45:3B:FA:E0:5F:68:81:D0:35:02:6F:93:50:51:88:40:2E
            X509v3 Basic Constraints: critical
                CA:TRUE
    Signature Algorithm: sha256WithRSAEncryption
    Signature Value:
        98:f0:7e:8e:f8:e2:93:4b:d2:90:82:b7:d1:0b:bf:52:34:75:
        2d:72:78:2f:d5:3e:1f:0a:1e:1b:30:fc:14:12:97:5a:45:49:
        11:48:32:5e:a2:3b:53:8d:ba:4f:1f:51:20:06:ad:85:88:99:
        23:9e:65:07:50:40:a6:3f:d2:7b:d6:d6:4e:8b:79:33:dd:cb:
        03:29:80:48:17:da:1d:71:9e:88:b8:ea:c9:98:ca:f8:ad:03:
        57:da:16:aa:b9:d1:00:c1:39:21:7f:96:c4:e1:3c:93:1e:25:
        58:56:64:a3:c4:25:77:f0:76:56:39:e0:a7:e7:0d:d7:d9:a8:
        d6:e1:ee:b7:2f:94:02:99:8f:56:0f:aa:7f:41:b3:3f:1b:67:
        b5:df:d1:4e:8e:f2:13:c2:a6:e2:23:5d:23:70:c0:7f:79:e4:
        a9:16:39:de:a8:7c:68:14:81:9c:ae:60:77:e8:53:57:45:88:
        3c:df:8c:05:e7:49:de:62:a9:ce:61:51:fe:40:d2:af:9e:6f:
        42:41:4e:09:97:ef:f7:89:24:ee:6c:dd:1e:e7:41:bb:7f:c2:
        30:f0:3f:f7:56:74:2a:56:93:74:c9:be:ef:77:67:24:87:4e:
        1c:c7:50:de:80:80:29:2a:2d:83:f2:47:89:03:3c:83:dc:78:
        0a:f2:db:c4
-----BEGIN CERTIFICATE-----
MIIECzCCAvOgAwIBAgIUSnNfC0KJ+I1EPbkyjDNhJu4LpLgwDQYJKoZIhvcNAQEL
BQAwgZQxCzAJBgNVBAYTAkNBMRQwEgYDVQQIDAtOb3ZhIFNjb3RpYTEWMBQGA1UE
CgwNQnJ1Y2UgUmlkZW91dDEUMBIGA1UECwwLRGV2ZWxvcG1lbnQxGTAXBgNVBAMM
EEJydWNlIFJpZGVvdXQgQ0ExJjAkBgkqhkiG9w0BCQEWF2JydWNlX3JpZGVvdXRA
eWFob28uY29tMB4XDTI0MDMxNDA5Mjg1OVoXDTI3MDMxNDA5Mjg1OVowgZQxCzAJ
BgNVBAYTAkNBMRQwEgYDVQQIDAtOb3ZhIFNjb3RpYTEWMBQGA1UECgwNQnJ1Y2Ug
UmlkZW91dDEUMBIGA1UECwwLRGV2ZWxvcG1lbnQxGTAXBgNVBAMMEEJydWNlIFJp
ZGVvdXQgQ0ExJjAkBgkqhkiG9w0BCQEWF2JydWNlX3JpZGVvdXRAeWFob28uY29t
MIIBIjANBgkqhkiG9w0BAQEFAAOCAQ8AMIIBCgKCAQEA1joaijGTVCswW9aq2klw
0xXaV/d24Gl8zqm2IIDOY7xGToLJW2hlY3DRxZY6E85sKgDJ8bdU2V1S6Ly3WN41
eQqNlrf+h6eZIFoKRBzldMl4edDpSVBTygTBbgYb2mxU+udZaxCk7SMhxNJ/z6+Y
S6wgAGQUwrL7GgnNbxHdjDOUIMf7moz6c6Z5B0ELsYxW83wncki5I/RjpicxEg9d
ZsgfhztWwI8c6v/4CGj2JXG7fIZIAxCmrGEDJFtiMgh44IfmtcgcIcjz+/2LbU1q
wnE/wDNAG+VmV5MmUdR9oU5tkcRoHi1BZ/XAsHt0rdog4/7VQPwotQav1elzQkLe
rwIDAQABo1MwUTAdBgNVHQ4EFgQUvtWQRTv64F9ogdA1Am+TUFGIQC4wHwYDVR0j
BBgwFoAUvtWQRTv64F9ogdA1Am+TUFGIQC4wDwYDVR0TAQH/BAUwAwEB/zANBgkq
hkiG9w0BAQsFAAOCAQEAmPB+jvjik0vSkIK30Qu/UjR1LXJ4L9U+HwoeGzD8FBKX
WkVJEUgyXqI7U426Tx9RIAathYiZI55lB1BApj/Se9bWTot5M93LAymASBfaHXGe
iLjqyZjK+K0DV9oWqrnRAME5IX+WxOE8kx4lWFZko8Qld/B2Vjngp+cN19mo1uHu
ty+UApmPVg+qf0GzPxtntd/RTo7yE8Km4iNdI3DAf3nkqRY53qh8aBSBnK5gd+hT
V0WIPN+MBedJ3mKpzmFR/kDSr55vQkFOCZfv94kk7mzdHudBu3/CMPA/91Z0KlaT
dMm+73dnJIdOHMdQ3oCAKSotg/JHiQM8g9x4CvLbxA==
-----END CERTIFICATE-----
