Certificate:
    Data:
        Version: 3 (0x2)
        Serial Number:
            5c:a9:5a:8d:2d:6d:5a:03:c4:86:1b:ee:80:80:7a:f4:77:01:7e:f9
        Signature Algorithm: sha256WithRSAEncryption
        Issuer: C=CA, ST=Nova Scotia, O=Bruce Rideout, OU=Development, CN=Bruce Rideout/emailAddress=bruce_rideout@yahoo.com
        Validity
            Not Before: Mar 12 22:39:05 2024 GMT
            Not After : Mar 12 22:39:05 2025 GMT
        Subject: C=CA, ST=Nova Scotia, L=Oxford, O=Bruce Rideout, OU=Development, CN=webmouse.local/emailAddress=bruce_rideout@yahoo.com
        Subject Public Key Info:
            Public Key Algorithm: rsaEncryption
                Public-Key: (2048 bit)
                Modulus:
                    00:dd:02:f3:ca:7c:64:56:66:5c:77:f6:23:7c:4e:
                    a3:37:1a:5c:ea:4d:69:0f:c2:9c:ee:eb:2f:cb:78:
                    eb:c5:74:ed:43:3e:09:6d:3c:6c:c3:3c:1f:e8:52:
                    8a:86:60:95:c9:bd:37:c4:5b:b5:8e:58:44:90:a6:
                    ba:50:dc:38:4b:99:e7:55:10:5a:e7:b3:0a:9b:1b:
                    3f:14:6f:89:e9:f0:87:6a:48:9d:3e:2b:6c:f2:c3:
                    20:16:68:e9:8f:63:9d:77:62:13:d8:9b:7b:b9:0b:
                    cd:c4:c7:a5:aa:c0:18:f6:5b:a8:80:4e:a6:22:6b:
                    31:88:86:84:1d:18:9c:a5:1a:d2:d4:1c:0b:e8:ca:
                    78:c0:ff:b0:39:bc:d9:d7:26:1d:93:56:fd:cd:f7:
                    d4:28:ba:ad:28:ff:c0:2e:40:aa:5d:2e:fc:09:2e:
                    aa:f3:2f:4b:16:88:42:85:99:82:33:98:1e:8d:e1:
                    5a:51:72:8d:8a:9f:8f:83:46:a3:d7:f4:35:3f:58:
                    7e:13:9a:7b:3a:99:07:bc:c4:a3:0a:c5:53:97:4c:
                    07:d9:83:1c:6a:6c:1e:15:c3:24:ed:24:86:86:3d:
                    55:91:b1:59:a1:5d:1b:23:ac:3c:6a:a3:d0:9e:64:
                    90:c7:83:f0:03:ee:37:3d:1b:0f:a4:67:8f:db:d1:
                    a4:c3
                Exponent: 65537 (0x10001)
        X509v3 extensions:
            X509v3 Basic Constraints: 
                CA:FALSE
            X509v3 Subject Key Identifier: 
                09:B4:22:1A:25:21:2F:11:EF:E7:40:1E:B2:EE:2A:83:70:11:22:7E
            X509v3 Authority Key Identifier: 
                BD:15:5C:9B:05:A5:98:75:DB:D9:23:E1:A5:DA:4B:7C:B5:9C:27:45
            X509v3 Subject Alternative Name: 
                DNS:webmouse.local
    Signature Algorithm: sha256WithRSAEncryption
    Signature Value:
        2f:51:02:3b:20:db:8f:10:ea:83:64:3c:7c:74:f5:f9:66:f2:
        b5:f7:39:ea:47:a5:45:fa:57:e8:47:e8:35:f8:03:33:bf:f1:
        48:f6:94:bb:07:63:eb:5a:f0:16:2e:5f:38:e7:55:ca:88:a0:
        ff:00:6b:56:89:27:d1:d5:07:f2:52:8b:be:99:de:90:9d:15:
        b6:d4:e2:d2:bc:7f:f7:8d:59:f2:69:04:71:22:99:25:88:1e:
        f3:e7:f8:66:59:50:47:90:ac:81:99:45:ff:f6:ac:b8:85:90:
        c6:09:da:bd:8b:25:d7:39:8a:06:42:49:b5:68:e9:3a:bc:c4:
        29:b8:2b:f7:86:9a:8b:d2:f7:ea:9e:ba:ca:4b:09:a5:2c:9d:
        be:13:7e:ad:88:bc:4c:5c:0d:cd:7c:c5:10:6e:ac:a8:60:39:
        9d:0e:10:98:8a:21:7f:fa:d2:2a:f0:ce:b4:f8:d4:b6:cf:bd:
        0f:b8:02:bf:ad:83:f4:23:c4:f2:cf:8c:82:3b:94:91:9c:13:
        30:60:ce:8e:e2:ac:d6:3e:36:ed:9e:e6:89:5c:4a:8e:1f:e1:
        3b:f5:f2:1d:5b:58:80:18:f7:eb:87:96:99:39:26:9a:e7:8c:
        c3:4f:87:e5:8b:26:ba:cb:b8:b9:0a:df:b9:7c:d2:71:d7:2e:
        66:8a:41:97
-----BEGIN CERTIFICATE-----
MIIELDCCAxSgAwIBAgIUXKlajS1tWgPEhhvugIB69HcBfvkwDQYJKoZIhvcNAQEL
BQAwgZExCzAJBgNVBAYTAkNBMRQwEgYDVQQIDAtOb3ZhIFNjb3RpYTEWMBQGA1UE
CgwNQnJ1Y2UgUmlkZW91dDEUMBIGA1UECwwLRGV2ZWxvcG1lbnQxFjAUBgNVBAMM
DUJydWNlIFJpZGVvdXQxJjAkBgkqhkiG9w0BCQEWF2JydWNlX3JpZGVvdXRAeWFo
b28uY29tMB4XDTI0MDMxMjIyMzkwNVoXDTI1MDMxMjIyMzkwNVowgaMxCzAJBgNV
BAYTAkNBMRQwEgYDVQQIDAtOb3ZhIFNjb3RpYTEPMA0GA1UEBwwGT3hmb3JkMRYw
FAYDVQQKDA1CcnVjZSBSaWRlb3V0MRQwEgYDVQQLDAtEZXZlbG9wbWVudDEXMBUG
A1UEAwwOd2VibW91c2UubG9jYWwxJjAkBgkqhkiG9w0BCQEWF2JydWNlX3JpZGVv
dXRAeWFob28uY29tMIIBIjANBgkqhkiG9w0BAQEFAAOCAQ8AMIIBCgKCAQEA3QLz
ynxkVmZcd/YjfE6jNxpc6k1pD8Kc7usvy3jrxXTtQz4JbTxswzwf6FKKhmCVyb03
xFu1jlhEkKa6UNw4S5nnVRBa57MKmxs/FG+J6fCHakidPits8sMgFmjpj2Odd2IT
2Jt7uQvNxMelqsAY9luogE6mImsxiIaEHRicpRrS1BwL6Mp4wP+wObzZ1yYdk1b9
zffUKLqtKP/ALkCqXS78CS6q8y9LFohChZmCM5gejeFaUXKNip+Pg0aj1/Q1P1h+
E5p7OpkHvMSjCsVTl0wH2YMcamweFcMk7SSGhj1VkbFZoV0bI6w8aqPQnmSQx4Pw
A+43PRsPpGeP29GkwwIDAQABo2gwZjAJBgNVHRMEAjAAMB0GA1UdDgQWBBQJtCIa
JSEvEe/nQB6y7iqDcBEifjAfBgNVHSMEGDAWgBS9FVybBaWYddvZI+Gl2kt8tZwn
RTAZBgNVHREEEjAQgg53ZWJtb3VzZS5sb2NhbDANBgkqhkiG9w0BAQsFAAOCAQEA
L1ECOyDbjxDqg2Q8fHT1+Wbytfc56kelRfpX6EfoNfgDM7/xSPaUuwdj61rwFi5f
OOdVyoig/wBrVokn0dUH8lKLvpnekJ0VttTi0rx/941Z8mkEcSKZJYge8+f4ZllQ
R5CsgZlF//asuIWQxgnavYsl1zmKBkJJtWjpOrzEKbgr94aai9L36p66yksJpSyd
vhN+rYi8TFwNzXzFEG6sqGA5nQ4QmIohf/rSKvDOtPjUts+9D7gCv62D9CPE8s+M
gjuUkZwTMGDOjuKs1j427Z7miVxKjh/hO/XyHVtYgBj364eWmTkmmueMw0+H5Ysm
usu4uQrfuXzScdcuZopBlw==
-----END CERTIFICATE-----
