Certificate:
    Data:
        Version: 3 (0x2)
        Serial Number:
            5c:a9:5a:8d:2d:6d:5a:03:c4:86:1b:ee:80:80:7a:f4:77:01:7e:f8
        Signature Algorithm: sha256WithRSAEncryption
        Issuer: C=CA, ST=Nova Scotia, O=Bruce Rideout, OU=Development, CN=Bruce Rideout/emailAddress=bruce_rideout@yahoo.com
        Validity
            Not Before: Mar 12 22:29:21 2024 GMT
            Not After : Mar 12 22:29:21 2027 GMT
        Subject: C=CA, ST=Nova Scotia, O=Bruce Rideout, OU=Development, CN=Bruce Rideout/emailAddress=bruce_rideout@yahoo.com
        Subject Public Key Info:
            Public Key Algorithm: rsaEncryption
                Public-Key: (2048 bit)
                Modulus:
                    00:a4:12:39:a0:4f:b2:13:d0:91:2e:75:9f:f9:dc:
                    73:51:4d:98:65:ae:a2:2e:73:67:28:7a:cd:f9:9a:
                    df:a7:34:4c:fc:f3:c1:b3:9f:88:56:38:ba:9a:2e:
                    4a:22:1a:36:a4:42:a9:63:56:9c:13:84:fe:cf:49:
                    db:eb:34:92:a6:62:d9:d1:38:b9:12:15:fc:1b:db:
                    68:50:35:46:0b:97:2b:a7:64:32:0a:05:ed:78:5a:
                    bb:5c:52:39:52:67:13:4a:8d:3a:c5:23:60:f2:17:
                    5d:86:86:f1:6c:2b:aa:86:60:67:f9:84:b2:4b:a9:
                    5d:1a:3a:c9:b8:5b:40:f2:5f:25:02:02:69:a2:b5:
                    7c:91:4b:65:ff:bb:27:08:78:2f:e6:aa:a2:88:7f:
                    08:33:da:86:30:05:d2:25:cc:f5:76:07:a4:46:b4:
                    c5:36:f8:32:f9:61:39:b9:8e:66:6e:5a:5b:d6:39:
                    bc:37:d9:6f:fa:48:ff:4b:a1:c4:2c:03:f9:06:3e:
                    9e:23:34:0f:43:5d:ba:7f:bc:6b:79:b5:95:7c:e8:
                    23:68:b1:ff:00:03:f7:ff:3b:50:ae:f0:b3:53:b5:
                    c7:8a:4e:9f:1c:9f:a2:8f:86:bc:44:3a:41:2e:a8:
                    b3:8d:b4:40:3c:83:de:7b:f4:43:75:1f:61:76:62:
                    5b:d9
                Exponent: 65537 (0x10001)
        X509v3 extensions:
            X509v3 Subject Key Identifier: 
                BD:15:5C:9B:05:A5:98:75:DB:D9:23:E1:A5:DA:4B:7C:B5:9C:27:45
            X509v3 Authority Key Identifier: 
                BD:15:5C:9B:05:A5:98:75:DB:D9:23:E1:A5:DA:4B:7C:B5:9C:27:45
            X509v3 Basic Constraints: critical
                CA:TRUE
    Signature Algorithm: sha256WithRSAEncryption
    Signature Value:
        5b:5a:fc:c3:27:fe:36:9b:15:cd:6a:10:d7:43:8b:c7:0b:f1:
        7b:aa:63:cd:93:a8:76:fa:c8:42:fd:98:ca:c0:f7:0c:b4:08:
        79:37:02:1b:3f:c1:1c:96:ff:9c:a6:c1:b0:7b:fb:c9:e9:74:
        06:98:94:73:f9:7a:e5:45:c8:74:91:82:fd:5b:3b:e1:7d:5f:
        23:c1:dd:7e:f5:03:4e:58:45:53:b0:63:f1:b6:57:d8:86:03:
        80:39:51:28:be:1e:ba:c2:8c:01:60:2f:b3:29:de:6c:44:f4:
        ad:15:84:b7:00:6a:9d:15:23:d0:c4:3a:ff:70:c7:20:0a:08:
        a2:44:19:48:bd:bd:ab:b2:02:ea:c5:55:91:9f:6e:78:72:9c:
        6b:d0:75:71:cf:31:ce:66:15:59:93:6c:72:5f:a3:ae:17:f4:
        0a:7a:c1:f5:a2:cd:25:5c:a3:27:0e:a4:33:af:bf:77:e1:5e:
        79:49:ed:84:97:9f:db:de:7e:35:15:25:da:98:04:3f:a8:03:
        af:84:87:95:9b:d6:cf:26:a4:8a:f7:45:33:93:ff:88:51:23:
        14:10:32:30:c5:ee:dd:31:bb:cf:ca:33:2a:29:d2:07:61:89:
        ee:9a:c4:47:05:06:57:88:37:7f:60:84:35:c5:ba:68:bd:10:
        ce:93:82:b6
-----BEGIN CERTIFICATE-----
MIIEBTCCAu2gAwIBAgIUXKlajS1tWgPEhhvugIB69HcBfvgwDQYJKoZIhvcNAQEL
BQAwgZExCzAJBgNVBAYTAkNBMRQwEgYDVQQIDAtOb3ZhIFNjb3RpYTEWMBQGA1UE
CgwNQnJ1Y2UgUmlkZW91dDEUMBIGA1UECwwLRGV2ZWxvcG1lbnQxFjAUBgNVBAMM
DUJydWNlIFJpZGVvdXQxJjAkBgkqhkiG9w0BCQEWF2JydWNlX3JpZGVvdXRAeWFo
b28uY29tMB4XDTI0MDMxMjIyMjkyMVoXDTI3MDMxMjIyMjkyMVowgZExCzAJBgNV
BAYTAkNBMRQwEgYDVQQIDAtOb3ZhIFNjb3RpYTEWMBQGA1UECgwNQnJ1Y2UgUmlk
ZW91dDEUMBIGA1UECwwLRGV2ZWxvcG1lbnQxFjAUBgNVBAMMDUJydWNlIFJpZGVv
dXQxJjAkBgkqhkiG9w0BCQEWF2JydWNlX3JpZGVvdXRAeWFob28uY29tMIIBIjAN
BgkqhkiG9w0BAQEFAAOCAQ8AMIIBCgKCAQEApBI5oE+yE9CRLnWf+dxzUU2YZa6i
LnNnKHrN+ZrfpzRM/PPBs5+IVji6mi5KIho2pEKpY1acE4T+z0nb6zSSpmLZ0Ti5
EhX8G9toUDVGC5crp2QyCgXteFq7XFI5UmcTSo06xSNg8hddhobxbCuqhmBn+YSy
S6ldGjrJuFtA8l8lAgJporV8kUtl/7snCHgv5qqiiH8IM9qGMAXSJcz1dgekRrTF
Nvgy+WE5uY5mblpb1jm8N9lv+kj/S6HELAP5Bj6eIzQPQ126f7xrebWVfOgjaLH/
AAP3/ztQrvCzU7XHik6fHJ+ij4a8RDpBLqizjbRAPIPee/RDdR9hdmJb2QIDAQAB
o1MwUTAdBgNVHQ4EFgQUvRVcmwWlmHXb2SPhpdpLfLWcJ0UwHwYDVR0jBBgwFoAU
vRVcmwWlmHXb2SPhpdpLfLWcJ0UwDwYDVR0TAQH/BAUwAwEB/zANBgkqhkiG9w0B
AQsFAAOCAQEAW1r8wyf+NpsVzWoQ10OLxwvxe6pjzZOodvrIQv2YysD3DLQIeTcC
Gz/BHJb/nKbBsHv7yel0BpiUc/l65UXIdJGC/Vs74X1fI8HdfvUDTlhFU7Bj8bZX
2IYDgDlRKL4eusKMAWAvsynebET0rRWEtwBqnRUj0MQ6/3DHIAoIokQZSL29q7IC
6sVVkZ9ueHKca9B1cc8xzmYVWZNscl+jrhf0CnrB9aLNJVyjJw6kM6+/d+FeeUnt
hJef295+NRUl2pgEP6gDr4SHlZvWzyakivdFM5P/iFEjFBAyMMXu3TG7z8ozKinS
B2GJ7prERwUGV4g3f2CENcW6aL0QzpOCtg==
-----END CERTIFICATE-----
