Certificate:
    Data:
        Version: 3 (0x2)
        Serial Number:
            5c:a9:5a:8d:2d:6d:5a:03:c4:86:1b:ee:80:80:7a:f4:77:01:7e:fa
        Signature Algorithm: sha256WithRSAEncryption
        Issuer: C=CA, ST=Nova Scotia, O=Bruce Rideout, OU=Development, CN=Bruce Rideout/emailAddress=bruce_rideout@yahoo.com
        Validity
            Not Before: Mar 13 10:17:09 2024 GMT
            Not After : Mar 13 10:17:09 2025 GMT
        Subject: C=CA, ST=Nova Scotia, L=Oxford, O=Bruce Rideout, OU=Devlopmeent, CN=webmouse.local/emailAddress=bruce_rideout@yahoo.com
        Subject Public Key Info:
            Public Key Algorithm: rsaEncryption
                Public-Key: (2048 bit)
                Modulus:
                    00:d5:36:24:9a:ed:3a:35:5c:55:82:ae:11:ca:2f:
                    93:85:c3:88:dd:08:ab:ad:49:4a:a6:89:11:2c:d8:
                    36:eb:6e:00:ee:4d:ff:d4:3e:59:4a:d6:b2:05:a2:
                    6a:51:50:f8:36:6d:da:1d:0d:53:3d:36:97:db:36:
                    1e:d2:8e:33:2c:b0:12:e4:8c:a3:93:3f:48:cf:7b:
                    fb:65:90:b0:7f:d5:14:51:dc:e0:31:43:3e:9f:89:
                    ad:0b:9e:55:85:c1:aa:28:11:6d:b3:42:c9:65:23:
                    06:f0:12:99:3b:31:05:6a:c7:34:e8:f6:e2:2e:b0:
                    5f:fd:d2:ae:35:3b:73:f0:fa:7a:73:9e:ae:a9:43:
                    b2:b2:19:1e:ba:cb:dd:37:e0:6e:16:b2:66:62:94:
                    5a:26:c1:17:8c:ae:9f:49:9c:32:4b:72:64:22:66:
                    12:d1:9e:fb:2a:a9:45:73:a9:32:05:a0:06:fa:89:
                    fa:b7:0c:17:a5:59:07:5d:59:f9:66:ca:5b:ef:6c:
                    e6:5f:b1:3c:73:a6:21:bb:67:8d:66:66:65:c1:ff:
                    7d:e9:06:7f:f9:eb:79:ce:ed:a1:5a:55:f7:e7:51:
                    ab:e5:8a:6f:07:bd:15:78:17:86:b1:22:d7:a5:c9:
                    67:c1:e6:ef:9e:47:fd:f7:1c:74:91:ab:bc:77:4d:
                    3d:69
                Exponent: 65537 (0x10001)
        X509v3 extensions:
            X509v3 Basic Constraints: 
                CA:FALSE
            X509v3 Subject Key Identifier: 
                1A:C4:41:3C:9D:B6:66:95:8E:07:79:B3:40:F5:34:0E:17:5F:91:19
            X509v3 Authority Key Identifier: 
                BD:15:5C:9B:05:A5:98:75:DB:D9:23:E1:A5:DA:4B:7C:B5:9C:27:45
            X509v3 Subject Alternative Name: 
                DNS:webmouse.local
    Signature Algorithm: sha256WithRSAEncryption
    Signature Value:
        8d:b6:77:36:bf:b9:74:af:e6:a7:4c:2a:06:67:47:86:b3:e8:
        b1:bc:c7:bc:24:08:98:10:3a:7f:9f:59:f6:a4:f1:29:d9:aa:
        65:58:65:28:d5:63:b3:00:6b:4c:dd:3e:0b:6c:90:40:5a:0f:
        83:10:af:e1:7a:c7:2f:36:ba:7f:de:47:bd:bb:a1:81:84:5c:
        08:1e:ea:78:cf:a4:a1:60:ad:b8:ca:6d:08:f6:0e:da:e6:49:
        0b:ec:cb:7e:18:64:1a:1c:eb:a0:15:8a:b2:59:da:63:e2:c0:
        bc:cc:88:16:50:2c:39:4a:2f:e0:35:14:db:0f:5c:31:8e:c3:
        62:b7:56:ad:c0:1f:ff:83:f5:3f:32:0e:73:ce:1f:f8:8f:ff:
        e1:59:be:20:9c:a4:df:d6:59:d9:95:93:0a:7c:2f:35:21:54:
        41:89:4e:44:dd:77:34:75:fa:ea:e4:c9:ae:94:47:79:6b:e4:
        30:39:22:64:ea:ce:1e:f1:ff:39:13:df:68:e9:8d:72:9d:3e:
        16:85:d2:d5:e7:c8:5f:11:b1:6c:bd:49:f7:98:44:e6:d5:ce:
        ae:d4:3c:8d:a8:2f:6d:98:9b:43:62:7f:5f:f5:ec:bf:26:f3:
        3f:f6:77:df:51:42:a7:22:34:c1:a3:c4:19:c5:e9:e0:f5:bf:
        c5:04:34:6c
-----BEGIN CERTIFICATE-----
MIIELDCCAxSgAwIBAgIUXKlajS1tWgPEhhvugIB69HcBfvowDQYJKoZIhvcNAQEL
BQAwgZExCzAJBgNVBAYTAkNBMRQwEgYDVQQIDAtOb3ZhIFNjb3RpYTEWMBQGA1UE
CgwNQnJ1Y2UgUmlkZW91dDEUMBIGA1UECwwLRGV2ZWxvcG1lbnQxFjAUBgNVBAMM
DUJydWNlIFJpZGVvdXQxJjAkBgkqhkiG9w0BCQEWF2JydWNlX3JpZGVvdXRAeWFo
b28uY29tMB4XDTI0MDMxMzEwMTcwOVoXDTI1MDMxMzEwMTcwOVowgaMxCzAJBgNV
BAYTAkNBMRQwEgYDVQQIDAtOb3ZhIFNjb3RpYTEPMA0GA1UEBwwGT3hmb3JkMRYw
FAYDVQQKDA1CcnVjZSBSaWRlb3V0MRQwEgYDVQQLDAtEZXZsb3BtZWVudDEXMBUG
A1UEAwwOd2VibW91c2UubG9jYWwxJjAkBgkqhkiG9w0BCQEWF2JydWNlX3JpZGVv
dXRAeWFob28uY29tMIIBIjANBgkqhkiG9w0BAQEFAAOCAQ8AMIIBCgKCAQEA1TYk
mu06NVxVgq4Ryi+ThcOI3QirrUlKpokRLNg2624A7k3/1D5ZStayBaJqUVD4Nm3a
HQ1TPTaX2zYe0o4zLLAS5Iyjkz9Iz3v7ZZCwf9UUUdzgMUM+n4mtC55VhcGqKBFt
s0LJZSMG8BKZOzEFasc06PbiLrBf/dKuNTtz8Pp6c56uqUOyshkeusvdN+BuFrJm
YpRaJsEXjK6fSZwyS3JkImYS0Z77KqlFc6kyBaAG+on6twwXpVkHXVn5Zspb72zm
X7E8c6Yhu2eNZmZlwf996QZ/+et5zu2hWlX351Gr5YpvB70VeBeGsSLXpclnwebv
nkf99xx0kau8d009aQIDAQABo2gwZjAJBgNVHRMEAjAAMB0GA1UdDgQWBBQaxEE8
nbZmlY4HebNA9TQOF1+RGTAfBgNVHSMEGDAWgBS9FVybBaWYddvZI+Gl2kt8tZwn
RTAZBgNVHREEEjAQgg53ZWJtb3VzZS5sb2NhbDANBgkqhkiG9w0BAQsFAAOCAQEA
jbZ3Nr+5dK/mp0wqBmdHhrPosbzHvCQImBA6f59Z9qTxKdmqZVhlKNVjswBrTN0+
C2yQQFoPgxCv4XrHLza6f95HvbuhgYRcCB7qeM+koWCtuMptCPYO2uZJC+zLfhhk
GhzroBWKslnaY+LAvMyIFlAsOUov4DUU2w9cMY7DYrdWrcAf/4P1PzIOc84f+I//
4Vm+IJyk39ZZ2ZWTCnwvNSFUQYlORN13NHX66uTJrpRHeWvkMDkiZOrOHvH/ORPf
aOmNcp0+FoXS1efIXxGxbL1J95hE5tXOrtQ8jagvbZibQ2J/X/XsvybzP/Z331FC
pyI0waPEGcXp4PW/xQQ0bA==
-----END CERTIFICATE-----
